target datalayout = "e-m:e-p270:32:32-p271:32:32-p272:64:64-i64:64-i128:128-f80:128-n8:16:32:64-S128"
target triple = "x86_64-pc-linux-gnu"

%struct.AVFilterContext = type { ptr, ptr, ptr, ptr, ptr, i32, ptr, ptr, i32, ptr, ptr, i32, i32, ptr, ptr, ptr, ptr, i32, ptr, i32, i32 }
%struct.FFFrameSync = type { ptr, ptr, i32, %struct.AVRational, i64, ptr, ptr, i32, i32, i8, i8, ptr, i32, i32, i32, i32 }
%struct.AVRational = type { i32, i32 }

; Function Attrs: nounwind uwtable
define internal i32 @blend_frame_for_dualinput(ptr noundef %0) #0 {
  %2 = alloca i32, align 4
  %3 = alloca ptr, align 8
  %4 = alloca ptr, align 8
  %5 = alloca ptr, align 8
  %6 = alloca ptr, align 8
  %7 = alloca ptr, align 8
  %8 = alloca i32, align 4
  %9 = alloca i32, align 4
  store ptr %0, ptr %3, align 8, !tbaa !665
  call void @llvm.lifetime.start.p0(i64 8, ptr %4) #12
  %10 = load ptr, ptr %3, align 8, !tbaa !665
  %11 = getelementptr inbounds nuw %struct.FFFrameSync, ptr %10, i32 0, i32 1
  %12 = load ptr, ptr %11, align 8, !tbaa !667
  store ptr %12, ptr %4, align 8, !tbaa !4
  call void @llvm.lifetime.start.p0(i64 8, ptr %5) #12
  call void @llvm.lifetime.start.p0(i64 8, ptr %6) #12
  call void @llvm.lifetime.start.p0(i64 8, ptr %7) #12
  call void @llvm.lifetime.start.p0(i64 4, ptr %8) #12
  %13 = load ptr, ptr %3, align 8, !tbaa !665
  %14 = call i32 @ff_framesync_dualinput_get(ptr noundef %13, ptr noundef %5, ptr noundef %6)
  store i32 %14, ptr %8, align 4, !tbaa !37
  %15 = load i32, ptr %8, align 4, !tbaa !37
  %16 = icmp slt i32 %15, 0
  br i1 %16, label %17, label %19

17:                                               ; preds = %1
  %18 = load i32, ptr %8, align 4, !tbaa !37
  store i32 %18, ptr %2, align 4
  store i32 1, ptr %9, align 4
  br label %42

19:                                               ; preds = %1
  %20 = load ptr, ptr %6, align 8, !tbaa !668
  %21 = icmp ne ptr %20, null
  br i1 %21, label %30, label %22

22:                                               ; preds = %19
  %23 = load ptr, ptr %4, align 8, !tbaa !4
  %24 = getelementptr inbounds nuw %struct.AVFilterContext, ptr %23, i32 0, i32 7
  %25 = load ptr, ptr %24, align 8, !tbaa !669
  %26 = getelementptr inbounds ptr, ptr %25, i64 0
  %27 = load ptr, ptr %26, align 8, !tbaa !47
  %28 = load ptr, ptr %5, align 8, !tbaa !668
  %29 = call i32 @ff_filter_frame(ptr noundef %27, ptr noundef %28)
  store i32 %29, ptr %2, align 4
  store i32 1, ptr %9, align 4
  br label %42

30:                                               ; preds = %19
  %31 = load ptr, ptr %4, align 8, !tbaa !4
  %32 = load ptr, ptr %5, align 8, !tbaa !668
  %33 = load ptr, ptr %6, align 8, !tbaa !668
  %34 = call ptr @blend_frame(ptr noundef %31, ptr noundef %32, ptr noundef %33)
  store ptr %34, ptr %7, align 8, !tbaa !668
  %35 = load ptr, ptr %4, align 8, !tbaa !4
  %36 = getelementptr inbounds nuw %struct.AVFilterContext, ptr %35, i32 0, i32 7
  %37 = load ptr, ptr %36, align 8, !tbaa !669
  %38 = getelementptr inbounds ptr, ptr %37, i64 0
  %39 = load ptr, ptr %38, align 8, !tbaa !47
  %40 = load ptr, ptr %7, align 8, !tbaa !668
  %41 = call i32 @ff_filter_frame(ptr noundef %39, ptr noundef %40)
  store i32 %41, ptr %2, align 4
  store i32 1, ptr %9, align 4
  br label %42

42:                                               ; preds = %30, %22, %17
  call void @llvm.lifetime.end.p0(i64 4, ptr %8) #12
  call void @llvm.lifetime.end.p0(i64 8, ptr %7) #12
  call void @llvm.lifetime.end.p0(i64 8, ptr %6) #12
  call void @llvm.lifetime.end.p0(i64 8, ptr %5) #12
  call void @llvm.lifetime.end.p0(i64 8, ptr %4) #12
  %43 = load i32, ptr %2, align 4
  ret i32 %43
}