; Function Attrs: nounwind uwtable
define internal i32 @blend_frame_for_dualinput(ptr noundef %0) #0 {
  %2 = alloca ptr, align 8
  %3 = alloca ptr, align 8
  %4 = getelementptr inbounds nuw i8, ptr %0, i64 8
  %5 = load ptr, ptr %4, align 8, !tbaa !644
  call void @llvm.lifetime.start.p0(i64 8, ptr nonnull %2) #12
  call void @llvm.lifetime.start.p0(i64 8, ptr nonnull %3) #12
  %6 = call i32 @ff_framesync_dualinput_get(ptr noundef %0, ptr noundef nonnull %2, ptr noundef nonnull %3) #12
  %7 = icmp slt i32 %6, 0
  br i1 %7, label %23, label %8

8:                                                ; preds = %1
  %9 = load ptr, ptr %3, align 8, !tbaa !645
  %.not = icmp eq ptr %9, null
  br i1 %.not, label %10, label %16

10:                                               ; preds = %8
  %11 = getelementptr inbounds nuw i8, ptr %5, i64 56
  %12 = load ptr, ptr %11, align 8, !tbaa !646
  %13 = load ptr, ptr %12, align 8, !tbaa !50
  %14 = load ptr, ptr %2, align 8, !tbaa !645
  %15 = call i32 @ff_filter_frame(ptr noundef %13, ptr noundef %14) #12
  br label %23

16:                                               ; preds = %8
  %17 = load ptr, ptr %2, align 8, !tbaa !645
  %18 = call fastcc ptr @blend_frame(ptr noundef %5, ptr noundef %17, ptr noundef %9)
  %19 = getelementptr inbounds nuw i8, ptr %5, i64 56
  %20 = load ptr, ptr %19, align 8, !tbaa !646
  %21 = load ptr, ptr %20, align 8, !tbaa !50
  %22 = call i32 @ff_filter_frame(ptr noundef %21, ptr noundef %18) #12
  br label %23

23:                                               ; preds = %1, %16, %10
  %.0 = phi i32 [ %22, %16 ], [ %15, %10 ], [ %6, %1 ]
  call void @llvm.lifetime.end.p0(i64 8, ptr nonnull %3) #12
  call void @llvm.lifetime.end.p0(i64 8, ptr nonnull %2) #12
  ret i32 %.0
}